target datalayout = "e-m:e-p270:32:32-p271:32:32-p272:64:64-i64:64-i128:128-f80:128-n8:16:32:64-S128"
target triple = "x86_64-pc-linux-gnu"

; Function Attrs: nounwind uwtable
define internal zeroext i1 @verifyconnect(i32 noundef %0, ptr noundef %1) #0 {
  %3 = alloca i32, align 4
  %4 = alloca ptr, align 8
  %5 = alloca i8, align 1
  %6 = alloca i32, align 4
  %7 = alloca i32, align 4
  store i32 %0, ptr %3, align 4
  store ptr %1, ptr %4, align 8
  store i8 1, ptr %5, align 1
  store i32 0, ptr %6, align 4
  store i32 4, ptr %7, align 4
  %8 = load i32, ptr %3, align 4
  %9 = call i32 @getsockopt(i32 noundef %8, i32 noundef 1, i32 noundef 4, ptr noundef %6, ptr noundef %7) #7
  %10 = icmp ne i32 0, %9
  br i1 %10, label %11, label %14

11:                                               ; preds = %2
  %12 = call ptr @__errno_location() #8
  %13 = load i32, ptr %12, align 4
  store i32 %13, ptr %6, align 4
  br label %14

14:                                               ; preds = %11, %2
  %15 = load i32, ptr %6, align 4
  %16 = icmp eq i32 0, %15
  br i1 %16, label %20, label %17

17:                                               ; preds = %14
  %18 = load i32, ptr %6, align 4
  %19 = icmp eq i32 106, %18
  br i1 %19, label %20, label %21

20:                                               ; preds = %17, %14
  store i8 1, ptr %5, align 1
  br label %22

21:                                               ; preds = %17
  store i8 0, ptr %5, align 1
  br label %22

22:                                               ; preds = %21, %20
  %23 = load ptr, ptr %4, align 8
  %24 = icmp ne ptr %23, null
  br i1 %24, label %25, label %28

25:                                               ; preds = %22
  %26 = load i32, ptr %6, align 4
  %27 = load ptr, ptr %4, align 8
  store i32 %26, ptr %27, align 4
  br label %28

28:                                               ; preds = %25, %22
  %29 = load i8, ptr %5, align 1
  %30 = trunc i8 %29 to i1
  ret i1 %30
}